target datalayout = "e-m:e-p270:32:32-p271:32:32-p272:64:64-i64:64-i128:128-f80:128-n8:16:32:64-S128"
target triple = "x86_64-pc-linux-gnu"

%struct.slurmctld_resv = type { i16, ptr, i32, ptr, ptr, i32, ptr, ptr, i32, ptr, i32, ptr, i32, i64, i64, ptr, i64, ptr, ptr, i32, i32, ptr, ptr, i32, ptr, ptr, i32, ptr, ptr, ptr, i32, i32, i64, i64, i64, i64, ptr, ptr, ptr, i32, ptr }

; Function Attrs: nounwind uwtable
define internal i32 @_update_resv_group_uid_access_list(ptr noundef %0, ptr noundef %1) #0 {
  %3 = alloca i32, align 4
  %4 = alloca ptr, align 8
  %5 = alloca ptr, align 8
  %6 = alloca ptr, align 8
  %7 = alloca ptr, align 8
  %8 = alloca i32, align 4
  %9 = alloca ptr, align 8
  %10 = alloca i32, align 4
  %11 = alloca ptr, align 8
  store ptr %0, ptr %4, align 8
  store ptr %1, ptr %5, align 8
  call void @llvm.lifetime.start.p0(i64 8, ptr %6) #10
  %12 = load ptr, ptr %4, align 8
  store ptr %12, ptr %6, align 8
  call void @llvm.lifetime.start.p0(i64 8, ptr %7) #10
  %13 = load ptr, ptr %5, align 8
  store ptr %13, ptr %7, align 8
  call void @llvm.lifetime.start.p0(i64 4, ptr %8) #10
  store i32 0, ptr %8, align 4
  call void @llvm.lifetime.start.p0(i64 8, ptr %9) #10
  %14 = load ptr, ptr %6, align 8
  %15 = getelementptr inbounds nuw %struct.slurmctld_resv, ptr %14, i32 0, i32 18
  %16 = load ptr, ptr %15, align 8
  %17 = icmp ne ptr %16, null
  br i1 %17, label %19, label %18

18:                                               ; preds = %2
  store i32 0, ptr %3, align 4
  store i32 1, ptr %10, align 4
  br label %66

19:                                               ; preds = %2
  %20 = load ptr, ptr %6, align 8
  %21 = getelementptr inbounds nuw %struct.slurmctld_resv, ptr %20, i32 0, i32 18
  %22 = load ptr, ptr %21, align 8
  %23 = call ptr @get_groups_members(ptr noundef %22, ptr noundef %8)
  store ptr %23, ptr %9, align 8
  %24 = load ptr, ptr %6, align 8
  %25 = getelementptr inbounds nuw %struct.slurmctld_resv, ptr %24, i32 0, i32 39
  %26 = load i32, ptr %25, align 8
  %27 = load i32, ptr %8, align 4
  %28 = icmp ne i32 %26, %27
  br i1 %28, label %39, label %29

29:                                               ; preds = %19
  %30 = load ptr, ptr %9, align 8
  %31 = load ptr, ptr %6, align 8
  %32 = getelementptr inbounds nuw %struct.slurmctld_resv, ptr %31, i32 0, i32 40
  %33 = load ptr, ptr %32, align 8
  %34 = load i32, ptr %8, align 4
  %35 = sext i32 %34 to i64
  %36 = mul i64 4, %35
  %37 = call i32 @memcmp(ptr noundef %30, ptr noundef %33, i64 noundef %36) #11
  %38 = icmp ne i32 %37, 0
  br i1 %38, label %39, label %65

39:                                               ; preds = %29, %19
  call void @llvm.lifetime.start.p0(i64 8, ptr %11) #10
  %40 = load ptr, ptr %6, align 8
  %41 = getelementptr inbounds nuw %struct.slurmctld_resv, ptr %40, i32 0, i32 4
  %42 = load ptr, ptr %41, align 8
  %43 = call ptr @xstrdup(ptr noundef %42)
  store ptr %43, ptr %11, align 8
  %44 = load i32, ptr %8, align 4
  %45 = load ptr, ptr %6, align 8
  %46 = getelementptr inbounds nuw %struct.slurmctld_resv, ptr %45, i32 0, i32 39
  store i32 %44, ptr %46, align 8
  %47 = load ptr, ptr %6, align 8
  %48 = getelementptr inbounds nuw %struct.slurmctld_resv, ptr %47, i32 0, i32 40
  call void @slurm_xfree(ptr noundef %48)
  %49 = load ptr, ptr %9, align 8
  %50 = load ptr, ptr %6, align 8
  %51 = getelementptr inbounds nuw %struct.slurmctld_resv, ptr %50, i32 0, i32 40
  store ptr %49, ptr %51, align 8
  store ptr null, ptr %9, align 8
  %52 = load ptr, ptr %6, align 8
  %53 = call i32 @_set_assoc_list(ptr noundef %52)
  %54 = call zeroext i1 @slurm_with_slurmdbd()
  br i1 %54, label %55, label %62

55:                                               ; preds = %39
  %56 = load ptr, ptr %11, align 8
  %57 = load ptr, ptr %6, align 8
  %58 = getelementptr inbounds nuw %struct.slurmctld_resv, ptr %57, i32 0, i32 4
  %59 = load ptr, ptr %58, align 8
  %60 = call i32 @xstrcmp(ptr noundef %56, ptr noundef %59)
  %61 = icmp ne i32 %60, 0
  br i1 %61, label %62, label %64

62:                                               ; preds = %55, %39
  %63 = load ptr, ptr %7, align 8
  store i32 1, ptr %63, align 4
  br label %64

64:                                               ; preds = %62, %55
  call void @slurm_xfree(ptr noundef %11)
  call void @llvm.lifetime.end.p0(i64 8, ptr %11) #10
  br label %65

65:                                               ; preds = %64, %29
  call void @slurm_xfree(ptr noundef %9)
  store i32 0, ptr %3, align 4
  store i32 1, ptr %10, align 4
  br label %66

66:                                               ; preds = %65, %18
  call void @llvm.lifetime.end.p0(i64 8, ptr %9) #10
  call void @llvm.lifetime.end.p0(i64 4, ptr %8) #10
  call void @llvm.lifetime.end.p0(i64 8, ptr %7) #10
  call void @llvm.lifetime.end.p0(i64 8, ptr %6) #10
  %67 = load i32, ptr %3, align 4
  ret i32 %67
}