; Function Attrs: nounwind uwtable
define internal noundef i32 @_update_resv_group_uid_access_list(ptr noundef %0, ptr noundef writeonly captures(none) %1) #0 {
  %3 = alloca i32, align 4
  %4 = alloca ptr, align 8
  %5 = alloca ptr, align 8
  call void @llvm.lifetime.start.p0(i64 4, ptr nonnull %3) #19
  store i32 0, ptr %3, align 4
  call void @llvm.lifetime.start.p0(i64 8, ptr nonnull %4) #19
  %6 = getelementptr inbounds nuw i8, ptr %0, i64 144
  %7 = load ptr, ptr %6, align 8
  %.not = icmp eq ptr %7, null
  br i1 %.not, label %32, label %8

8:                                                ; preds = %2
  %9 = call ptr @get_groups_members(ptr noundef nonnull %7, ptr noundef nonnull %3) #19
  store ptr %9, ptr %4, align 8
  %10 = getelementptr inbounds nuw i8, ptr %0, i64 296
  %11 = load i32, ptr %10, align 8
  %12 = load i32, ptr %3, align 4
  %.not14 = icmp eq i32 %11, %12
  br i1 %.not14, label %13, label %18

13:                                               ; preds = %8
  %14 = getelementptr inbounds nuw i8, ptr %0, i64 304
  %15 = load ptr, ptr %14, align 8
  %16 = sext i32 %11 to i64
  %17 = shl nsw i64 %16, 2
  %bcmp = call i32 @bcmp(ptr %9, ptr %15, i64 %17)
  %.not15 = icmp eq i32 %bcmp, 0
  br i1 %.not15, label %31, label %18

18:                                               ; preds = %13, %8
  call void @llvm.lifetime.start.p0(i64 8, ptr nonnull %5) #19
  %19 = getelementptr inbounds nuw i8, ptr %0, i64 32
  %20 = load ptr, ptr %19, align 8
  %21 = call ptr @xstrdup(ptr noundef %20) #19
  store ptr %21, ptr %5, align 8
  %22 = load i32, ptr %3, align 4
  store i32 %22, ptr %10, align 8
  %23 = getelementptr inbounds nuw i8, ptr %0, i64 304
  call void @slurm_xfree(ptr noundef nonnull %23) #19
  store ptr %9, ptr %23, align 8
  store ptr null, ptr %4, align 8
  %24 = call fastcc i32 @_set_assoc_list(ptr noundef nonnull %0)
  %25 = call zeroext i1 @slurm_with_slurmdbd() #19
  br i1 %25, label %26, label %29

26:                                               ; preds = %18
  %27 = load ptr, ptr %19, align 8
  %28 = call i32 @xstrcmp(ptr noundef %21, ptr noundef %27) #19
  %.not16 = icmp eq i32 %28, 0
  br i1 %.not16, label %30, label %29

29:                                               ; preds = %26, %18
  store i32 1, ptr %1, align 4
  br label %30

30:                                               ; preds = %29, %26
  call void @slurm_xfree(ptr noundef nonnull %5) #19
  call void @llvm.lifetime.end.p0(i64 8, ptr nonnull %5) #19
  br label %31

31:                                               ; preds = %30, %13
  call void @slurm_xfree(ptr noundef nonnull %4) #19
  br label %32

32:                                               ; preds = %2, %31
  call void @llvm.lifetime.end.p0(i64 8, ptr nonnull %4) #19
  call void @llvm.lifetime.end.p0(i64 4, ptr nonnull %3) #19
  ret i32 0
}